(lp0
I525
a(lp1
I225
aI226
aI227
aI228
aI229
aI230
aI231
aI232
aI233
aI234
aI236
aI237
aI238
aI239
aI240
aI241
aI243
aI244
aI245
aI246
aI247
aI248
aI249
aI250
aI251
aI252
aI253
aI254
aI255
aI256
aI257
aI258
aI259
aI260
aI261
aI262
aI263
aI264
aI265
aI266
aI267
aI268
aI269
aI270
aI271
aI272
aI273
aI274
aI275
aI276
aI277
aI278
aI279
aI280
aI281
aI282
aI283
aI284
aI285
aI286
aI287
aI288
aI292
aI293
aI294
aI295
aI297
aI298
aI299
aI300
aI301
aI302
aI303
aI304
aI305
aI306
aI307
aI308
aI310
aI311
aI312
aI313
aI314
aI316
aI317
aI318
aI323
aI326
aI329
aI330
aI333
aI334
aI335
aI336
aI339
aI340
aI341
aI343
aI345
aI347
aI351
aI360
aI361
aI362
aI363
aI364
aI374
aI376
aaI1
a.